target datalayout = "e-m:e-p270:32:32-p271:32:32-p272:64:64-i64:64-i128:128-f80:128-n8:16:32:64-S128"
target triple = "x86_64-unknown-linux-gnu"

@.str.4 = private unnamed_addr constant [26 x i8] c"drivers/gpu/drm/drm_gem.c\00", align 1

; Function Attrs: fn_ret_thunk_extern nounwind null_pointer_is_valid
define internal fastcc noundef i32 @objects_lookup(ptr noundef %0, ptr nocapture noundef readonly %1, i32 noundef %2, ptr nocapture noundef writeonly %3) unnamed_addr #0 align 16 {
  %5 = getelementptr inbounds i8, ptr %0, i64 104
  tail call void @_raw_spin_lock(ptr noundef %5) #11
  %6 = getelementptr inbounds i8, ptr %0, i64 80
  %7 = icmp sgt i32 %2, 0
  br i1 %7, label %8, label %30

8:                                                ; preds = %4
  %9 = zext nneg i32 %2 to i64
  br label %10

10:                                               ; preds = %26, %8
  %11 = phi i64 [ 0, %8 ], [ %28, %26 ]
  %12 = getelementptr i32, ptr %1, i64 %11
  %13 = load i32, ptr %12, align 4
  %14 = zext i32 %13 to i64
  %15 = tail call ptr @idr_find(ptr noundef %6, i64 noundef %14) #11
  %16 = icmp eq ptr %15, null
  br i1 %16, label %30, label %17

17:                                               ; preds = %10
  %18 = tail call i32 asm sideeffect ".pushsection .smp_locks,\22a\22\0A.balign 4\0A.long 671f - .\0A.popsection\0A671:\0A\09lock; xaddl $0, $1\0A", "=r,=*m,0,*m,~{memory},~{cc},~{dirflag},~{fpsr},~{flags}"(ptr nonnull elementtype(i32) %15, i32 1, ptr nonnull elementtype(i32) %15) #11, !srcloc !22
  %19 = icmp eq i32 %18, 0
  br i1 %19, label %24, label %20, !prof !15

20:                                               ; preds = %17
  %21 = add i32 %18, 1
  %22 = or i32 %21, %18
  %23 = icmp sgt i32 %22, -1
  br i1 %23, label %26, label %24, !prof !6

24:                                               ; preds = %20, %17
  %25 = phi i32 [ 2, %17 ], [ 1, %20 ]
  tail call void @refcount_warn_saturate(ptr noundef nonnull %15, i32 noundef %25) #11
  br label %26

26:                                               ; preds = %24, %20
  %27 = getelementptr ptr, ptr %3, i64 %11
  store ptr %15, ptr %27, align 8
  %28 = add nuw nsw i64 %11, 1
  %29 = icmp eq i64 %28, %9
  br i1 %29, label %30, label %10, !llvm.loop !54

30:                                               ; preds = %26, %10, %4
  %31 = phi i32 [ 0, %4 ], [ 0, %26 ], [ -2, %10 ]
  tail call void @_raw_spin_unlock(ptr noundef %5) #11
  ret i32 %31
}

; Function Attrs: fn_ret_thunk_extern nounwind null_pointer_is_valid
define dso_local i32 @drm_gem_dumb_map_offset(ptr noundef %0, ptr nocapture readnone %1, i32 noundef %2, ptr nocapture noundef writeonly %3) #0 align 16 {
  %5 = alloca i32, align 4
  %6 = alloca ptr, align 8
  call void @llvm.lifetime.start.p0(i64 4, ptr nonnull %5)
  store i32 %2, ptr %5, align 4
  call void @llvm.lifetime.start.p0(i64 8, ptr nonnull %6) #11
  store ptr null, ptr %6, align 8
  %7 = call fastcc i32 @objects_lookup(ptr noundef %0, ptr noundef nonnull %5, i32 noundef 1, ptr noundef nonnull %6), !range !12
  %8 = load ptr, ptr %6, align 8
  call void @llvm.lifetime.end.p0(i64 8, ptr nonnull %6) #11
  call void @llvm.lifetime.end.p0(i64 4, ptr nonnull %5)
  %9 = icmp eq ptr %8, null
  br i1 %9, label %45, label %10

10:                                               ; preds = %4
  %11 = getelementptr inbounds i8, ptr %8, i64 240
  %12 = load ptr, ptr %11, align 8
  %13 = icmp eq ptr %12, null
  br i1 %13, label %14, label %29

14:                                               ; preds = %10
  %15 = getelementptr inbounds i8, ptr %8, i64 216
  %16 = load i64, ptr %15, align 8
  %17 = getelementptr inbounds i8, ptr %8, i64 8
  %18 = load ptr, ptr %17, align 8
  %19 = getelementptr inbounds i8, ptr %18, i64 1512
  %20 = load ptr, ptr %19, align 8
  %21 = getelementptr inbounds i8, ptr %8, i64 24
  %22 = lshr i64 %16, 12
  %23 = tail call i32 @drm_vma_offset_add(ptr noundef %20, ptr noundef %21, i64 noundef %22) #11
  %24 = icmp eq i32 %23, 0
  br i1 %24, label %25, label %29

25:                                               ; preds = %14
  %26 = getelementptr inbounds i8, ptr %8, i64 40
  %27 = load i64, ptr %26, align 8
  %28 = shl i64 %27, 12
  store i64 %28, ptr %3, align 8
  br label %29

29:                                               ; preds = %25, %14, %10
  %30 = phi i32 [ %23, %14 ], [ 0, %25 ], [ -22, %10 ]
  %31 = tail call i32 asm sideeffect ".pushsection .smp_locks,\22a\22\0A.balign 4\0A.long 671f - .\0A.popsection\0A671:\0A\09lock; xaddl $0, $1\0A", "=r,=*m,0,*m,~{memory},~{cc},~{dirflag},~{fpsr},~{flags}"(ptr nonnull elementtype(i32) %8, i32 -1, ptr nonnull elementtype(i32) %8) #11, !srcloc !13
  %32 = icmp eq i32 %31, 1
  br i1 %32, label %33, label %34

33:                                               ; preds = %29
  tail call void asm sideeffect "", "~{memory},~{dirflag},~{fpsr},~{flags}"() #11, !srcloc !14
  br label %37

34:                                               ; preds = %29
  %35 = icmp sgt i32 %31, 0
  br i1 %35, label %37, label %36, !prof !6

36:                                               ; preds = %34
  tail call void @refcount_warn_saturate(ptr noundef nonnull %8, i32 noundef 3) #11
  br label %37

37:                                               ; preds = %36, %34, %33
  br i1 %32, label %38, label %45

38:                                               ; preds = %37
  %39 = getelementptr inbounds i8, ptr %8, i64 320
  %40 = load ptr, ptr %39, align 8
  %41 = load ptr, ptr %40, align 8
  %42 = icmp eq ptr %41, null
  br i1 %42, label %43, label %44, !prof !15

43:                                               ; preds = %38
  tail call void asm sideeffect "493: nop\0A\09.pushsection .discard.instr_begin\0A\09.long 493b - .\0A\09.popsection\0A\09", "i,~{dirflag},~{fpsr},~{flags}"(i32 493) #11, !srcloc !16
  tail call void asm sideeffect "1:\09.byte 0x0f, 0x0b\0A.pushsection __bug_table,\22aw\22\0A2:\09.long 1b - .\09# bug_entry::bug_addr\0A\09.long ${0:c} - .\09# bug_entry::file\0A\09.word ${1:c}\09# bug_entry::line\0A\09.word ${2:c}\09# bug_entry::flags\0A\09.org 2b+${3:c}\0A.popsection\0A998:\0A\09.pushsection .discard.reachable\0A\09.long 998b\0A\09.popsection\0A\09", "i,i,i,i,~{dirflag},~{fpsr},~{flags}"(ptr nonnull @.str.4, i32 979, i32 2305, i64 12) #11, !srcloc !17
  tail call void asm sideeffect "494: nop\0A\09.pushsection .discard.instr_end\0A\09.long 494b - .\0A\09.popsection\0A\09", "i,~{dirflag},~{fpsr},~{flags}"(i32 494) #11, !srcloc !18
  br label %45

44:                                               ; preds = %38
  tail call void %41(ptr noundef nonnull %8) #11
  br label %45

45:                                               ; preds = %44, %43, %37, %4
  %46 = phi i32 [ -2, %4 ], [ %30, %37 ], [ %30, %43 ], [ %30, %44 ]
  ret i32 %46
}