; Function Attrs: fn_ret_thunk_extern nounwind null_pointer_is_valid
define dso_local i32 @drm_gem_dumb_map_offset(ptr noundef %0, ptr nocapture readnone %1, i32 noundef %2, ptr nocapture noundef writeonly %3) #0 align 16 {
  %5 = getelementptr inbounds i8, ptr %0, i64 104
  tail call void @_raw_spin_lock(ptr noundef %5) #11
  %6 = getelementptr inbounds i8, ptr %0, i64 80
  %7 = zext i32 %2 to i64
  %8 = tail call ptr @idr_find(ptr noundef %6, i64 noundef %7) #11
  %9 = icmp eq ptr %8, null
  br i1 %9, label %objects_lookup.exit, label %.lr.ph.preheader

.lr.ph.preheader:                                 ; preds = %4
  %10 = tail call i32 asm sideeffect ".pushsection .smp_locks,\22a\22\0A.balign 4\0A.long 671f - .\0A.popsection\0A671:\0A\09lock; xaddl $0, $1\0A", "=r,=*m,0,*m,~{memory},~{cc},~{dirflag},~{fpsr},~{flags}"(ptr nonnull elementtype(i32) %8, i32 1, ptr nonnull elementtype(i32) %8) #11, !srcloc !12
  %11 = icmp eq i32 %10, 0
  br i1 %11, label %16, label %12, !prof !13

12:                                               ; preds = %.lr.ph.preheader
  %13 = add i32 %10, 1
  %14 = or i32 %13, %10
  %15 = icmp sgt i32 %14, -1
  br i1 %15, label %18, label %16, !prof !6

16:                                               ; preds = %12, %.lr.ph.preheader
  %17 = phi i32 [ 2, %.lr.ph.preheader ], [ 1, %12 ]
  tail call void @refcount_warn_saturate(ptr noundef nonnull %8, i32 noundef %17) #11
  br label %18

objects_lookup.exit:                              ; preds = %4
  tail call void @_raw_spin_unlock(ptr noundef %5) #11
  br label %.thread

18:                                               ; preds = %12, %16
  tail call void @_raw_spin_unlock(ptr noundef %5) #11
  %19 = getelementptr inbounds i8, ptr %8, i64 240
  %20 = load ptr, ptr %19, align 8
  %21 = icmp eq ptr %20, null
  br i1 %21, label %22, label %37

22:                                               ; preds = %18
  %23 = getelementptr inbounds i8, ptr %8, i64 216
  %24 = load i64, ptr %23, align 8
  %25 = getelementptr inbounds i8, ptr %8, i64 8
  %26 = load ptr, ptr %25, align 8
  %27 = getelementptr inbounds i8, ptr %26, i64 1512
  %28 = load ptr, ptr %27, align 8
  %29 = getelementptr inbounds i8, ptr %8, i64 24
  %30 = lshr i64 %24, 12
  %31 = tail call i32 @drm_vma_offset_add(ptr noundef %28, ptr noundef %29, i64 noundef %30) #11
  %32 = icmp eq i32 %31, 0
  br i1 %32, label %33, label %37

33:                                               ; preds = %22
  %34 = getelementptr inbounds i8, ptr %8, i64 40
  %35 = load i64, ptr %34, align 8
  %36 = shl i64 %35, 12
  store i64 %36, ptr %3, align 8
  br label %37

37:                                               ; preds = %33, %22, %18
  %38 = phi i32 [ %31, %22 ], [ 0, %33 ], [ -22, %18 ]
  %39 = tail call i32 asm sideeffect ".pushsection .smp_locks,\22a\22\0A.balign 4\0A.long 671f - .\0A.popsection\0A671:\0A\09lock; xaddl $0, $1\0A", "=r,=*m,0,*m,~{memory},~{cc},~{dirflag},~{fpsr},~{flags}"(ptr nonnull elementtype(i32) %8, i32 -1, ptr nonnull elementtype(i32) %8) #11, !srcloc !14
  %40 = icmp eq i32 %39, 1
  br i1 %40, label %44, label %41

41:                                               ; preds = %37
  %42 = icmp sgt i32 %39, 0
  br i1 %42, label %.thread, label %43, !prof !6

43:                                               ; preds = %41
  tail call void @refcount_warn_saturate(ptr noundef nonnull %8, i32 noundef 3) #11
  br label %.thread

44:                                               ; preds = %37
  tail call void asm sideeffect "", "~{memory},~{dirflag},~{fpsr},~{flags}"() #11, !srcloc !15
  %45 = getelementptr inbounds i8, ptr %8, i64 320
  %46 = load ptr, ptr %45, align 8
  %47 = load ptr, ptr %46, align 8
  %48 = icmp eq ptr %47, null
  br i1 %48, label %49, label %50, !prof !13

49:                                               ; preds = %44
  tail call void asm sideeffect "493: nop\0A\09.pushsection .discard.instr_begin\0A\09.long 493b - .\0A\09.popsection\0A\09", "i,~{dirflag},~{fpsr},~{flags}"(i32 493) #11, !srcloc !16
  tail call void asm sideeffect "1:\09.byte 0x0f, 0x0b\0A.pushsection __bug_table,\22aw\22\0A2:\09.long 1b - .\09# bug_entry::bug_addr\0A\09.long ${0:c} - .\09# bug_entry::file\0A\09.word ${1:c}\09# bug_entry::line\0A\09.word ${2:c}\09# bug_entry::flags\0A\09.org 2b+${3:c}\0A.popsection\0A998:\0A\09.pushsection .discard.reachable\0A\09.long 998b\0A\09.popsection\0A\09", "i,i,i,i,~{dirflag},~{fpsr},~{flags}"(ptr nonnull @.str.4, i32 979, i32 2305, i64 12) #11, !srcloc !17
  tail call void asm sideeffect "494: nop\0A\09.pushsection .discard.instr_end\0A\09.long 494b - .\0A\09.popsection\0A\09", "i,~{dirflag},~{fpsr},~{flags}"(i32 494) #11, !srcloc !18
  br label %.thread

50:                                               ; preds = %44
  tail call void %47(ptr noundef nonnull %8) #11
  br label %.thread

.thread:                                          ; preds = %objects_lookup.exit, %41, %43, %50, %49
  %51 = phi i32 [ -2, %objects_lookup.exit ], [ %38, %49 ], [ %38, %50 ], [ %38, %43 ], [ %38, %41 ]
  ret i32 %51
}